target datalayout = "e-m:e-p270:32:32-p271:32:32-p272:64:64-i64:64-i128:128-f80:128-n8:16:32:64-S128"
target triple = "x86_64-pc-linux-gnu"

%struct._JPLISAgent = type { ptr, %struct._JPLISEnvironment, %struct._JPLISEnvironment, ptr, ptr, ptr, ptr, i8, i8, i8, i8, ptr, ptr, ptr, i8 }
%struct._JPLISEnvironment = type { ptr, ptr, i8 }
%struct.JNINativeInterface_ = type { ptr, ptr, ptr, ptr, ptr, ptr, ptr, ptr, ptr, ptr, ptr, ptr, ptr, ptr, ptr, ptr, ptr, ptr, ptr, ptr, ptr, ptr, ptr, ptr, ptr, ptr, ptr, ptr, ptr, ptr, ptr, ptr, ptr, ptr, ptr, ptr, ptr, ptr, ptr, ptr, ptr, ptr, ptr, ptr, ptr, ptr, ptr, ptr, ptr, ptr, ptr, ptr, ptr, ptr, ptr, ptr, ptr, ptr, ptr, ptr, ptr, ptr, ptr, ptr, ptr, ptr, ptr, ptr, ptr, ptr, ptr, ptr, ptr, ptr, ptr, ptr, ptr, ptr, ptr, ptr, ptr, ptr, ptr, ptr, ptr, ptr, ptr, ptr, ptr, ptr, ptr, ptr, ptr, ptr, ptr, ptr, ptr, ptr, ptr, ptr, ptr, ptr, ptr, ptr, ptr, ptr, ptr, ptr, ptr, ptr, ptr, ptr, ptr, ptr, ptr, ptr, ptr, ptr, ptr, ptr, ptr, ptr, ptr, ptr, ptr, ptr, ptr, ptr, ptr, ptr, ptr, ptr, ptr, ptr, ptr, ptr, ptr, ptr, ptr, ptr, ptr, ptr, ptr, ptr, ptr, ptr, ptr, ptr, ptr, ptr, ptr, ptr, ptr, ptr, ptr, ptr, ptr, ptr, ptr, ptr, ptr, ptr, ptr, ptr, ptr, ptr, ptr, ptr, ptr, ptr, ptr, ptr, ptr, ptr, ptr, ptr, ptr, ptr, ptr, ptr, ptr, ptr, ptr, ptr, ptr, ptr, ptr, ptr, ptr, ptr, ptr, ptr, ptr, ptr, ptr, ptr, ptr, ptr, ptr, ptr, ptr, ptr, ptr, ptr, ptr, ptr, ptr, ptr, ptr, ptr, ptr, ptr, ptr, ptr, ptr, ptr, ptr, ptr, ptr, ptr, ptr, ptr, ptr, ptr, ptr, ptr, ptr, ptr, ptr, ptr, ptr, ptr, ptr, ptr, ptr }

@.str.11 = private unnamed_addr constant [16 x i8] c"Boot-Class-Path\00", align 1
@.str.29 = private unnamed_addr constant [21 x i8] c"Launcher-Agent-Class\00", align 1
@.str.30 = private unnamed_addr constant [27 x i8] c"java/lang/OutOfMemoryError\00", align 1
@.str.31 = private unnamed_addr constant [1 x i8] zeroinitializer, align 1

; Function Attrs: nounwind uwtable
define hidden i32 @loadAgent(ptr noundef %0, ptr noundef %1) #0 {
  %3 = alloca i32, align 4
  %4 = alloca ptr, align 8
  %5 = alloca ptr, align 8
  %6 = alloca ptr, align 8
  %7 = alloca ptr, align 8
  %8 = alloca ptr, align 8
  %9 = alloca ptr, align 8
  %10 = alloca ptr, align 8
  %11 = alloca ptr, align 8
  %12 = alloca i32, align 4
  %13 = alloca i32, align 4
  %14 = alloca i32, align 4
  %15 = alloca ptr, align 8
  %16 = alloca ptr, align 8
  store ptr %0, ptr %4, align 8
  store ptr %1, ptr %5, align 8
  store ptr null, ptr %8, align 8
  store ptr null, ptr %9, align 8
  store ptr null, ptr %10, align 8
  store i32 -1, ptr %14, align 4
  %17 = load ptr, ptr %4, align 8
  %18 = load ptr, ptr %17, align 8
  %19 = getelementptr inbounds %struct.JNINativeInterface_, ptr %18, i32 0, i32 219
  %20 = load ptr, ptr %19, align 8
  %21 = load ptr, ptr %4, align 8
  %22 = call i32 %20(ptr noundef %21, ptr noundef %6)
  %23 = icmp slt i32 %22, 0
  br i1 %23, label %24, label %25

24:                                               ; preds = %2
  store i32 -1, ptr %3, align 4
  br label %174

25:                                               ; preds = %2
  %26 = load ptr, ptr %4, align 8
  %27 = load ptr, ptr %26, align 8
  %28 = getelementptr inbounds %struct.JNINativeInterface_, ptr %27, i32 0, i32 169
  %29 = load ptr, ptr %28, align 8
  %30 = load ptr, ptr %4, align 8
  %31 = load ptr, ptr %5, align 8
  %32 = call ptr %29(ptr noundef %30, ptr noundef %31, ptr noundef null)
  store ptr %32, ptr %8, align 8
  %33 = load ptr, ptr %8, align 8
  %34 = icmp eq ptr %33, null
  br i1 %34, label %35, label %36

35:                                               ; preds = %25
  store i32 -1, ptr %3, align 4
  br label %174

36:                                               ; preds = %25
  %37 = load ptr, ptr %6, align 8
  %38 = load ptr, ptr %8, align 8
  %39 = call i32 @createNewJPLISAgent(ptr noundef %37, ptr noundef %7, ptr noundef %38, i8 noundef zeroext 0)
  %40 = icmp ne i32 %39, 0
  br i1 %40, label %41, label %49

41:                                               ; preds = %36
  %42 = load ptr, ptr %4, align 8
  %43 = load ptr, ptr %42, align 8
  %44 = getelementptr inbounds %struct.JNINativeInterface_, ptr %43, i32 0, i32 170
  %45 = load ptr, ptr %44, align 8
  %46 = load ptr, ptr %4, align 8
  %47 = load ptr, ptr %5, align 8
  %48 = load ptr, ptr %8, align 8
  call void %45(ptr noundef %46, ptr noundef %47, ptr noundef %48)
  store i32 -1, ptr %3, align 4
  br label %174

49:                                               ; preds = %36
  %50 = load ptr, ptr %8, align 8
  %51 = call ptr @readAttributes(ptr noundef %50)
  store ptr %51, ptr %9, align 8
  %52 = load ptr, ptr %9, align 8
  %53 = icmp eq ptr %52, null
  br i1 %53, label %54, label %55

54:                                               ; preds = %49
  br label %148

55:                                               ; preds = %49
  %56 = load ptr, ptr %9, align 8
  %57 = call ptr @getAttribute(ptr noundef %56, ptr noundef @.str.29)
  store ptr %57, ptr %10, align 8
  %58 = load ptr, ptr %10, align 8
  %59 = icmp eq ptr %58, null
  br i1 %59, label %60, label %61

60:                                               ; preds = %55
  br label %148

61:                                               ; preds = %55
  %62 = load ptr, ptr %10, align 8
  %63 = call i64 @strlen(ptr noundef %62) #8
  %64 = trunc i64 %63 to i32
  store i32 %64, ptr %12, align 4
  %65 = load ptr, ptr %10, align 8
  %66 = load i32, ptr %12, align 4
  %67 = call i32 @modifiedUtf8LengthOfUtf8(ptr noundef %65, i32 noundef %66)
  store i32 %67, ptr %13, align 4
  %68 = load i32, ptr %12, align 4
  %69 = icmp slt i32 %68, 0
  br i1 %69, label %76, label %70

70:                                               ; preds = %61
  %71 = load i32, ptr %13, align 4
  %72 = icmp slt i32 %71, 0
  br i1 %72, label %76, label %73

73:                                               ; preds = %70
  %74 = load i32, ptr %13, align 4
  %75 = icmp sgt i32 %74, 65535
  br i1 %75, label %76, label %77

76:                                               ; preds = %73, %70, %61
  br label %148

77:                                               ; preds = %73
  %78 = load i32, ptr %13, align 4
  %79 = load i32, ptr %12, align 4
  %80 = icmp eq i32 %78, %79
  br i1 %80, label %81, label %84

81:                                               ; preds = %77
  %82 = load ptr, ptr %10, align 8
  %83 = call noalias ptr @strdup(ptr noundef %82) #9
  store ptr %83, ptr %10, align 8
  br label %98

84:                                               ; preds = %77
  %85 = load i32, ptr %13, align 4
  %86 = add nsw i32 %85, 1
  %87 = sext i32 %86 to i64
  %88 = call noalias ptr @malloc(i64 noundef %87) #10
  store ptr %88, ptr %15, align 8
  %89 = load ptr, ptr %15, align 8
  %90 = icmp ne ptr %89, null
  br i1 %90, label %91, label %96

91:                                               ; preds = %84
  %92 = load ptr, ptr %10, align 8
  %93 = load i32, ptr %12, align 4
  %94 = load ptr, ptr %15, align 8
  %95 = load i32, ptr %13, align 4
  call void @convertUtf8ToModifiedUtf8(ptr noundef %92, i32 noundef %93, ptr noundef %94, i32 noundef %95)
  br label %96

96:                                               ; preds = %91, %84
  %97 = load ptr, ptr %15, align 8
  store ptr %97, ptr %10, align 8
  br label %98

98:                                               ; preds = %96, %81
  %99 = load ptr, ptr %10, align 8
  %100 = icmp eq ptr %99, null
  br i1 %100, label %101, label %115

101:                                              ; preds = %98
  %102 = load ptr, ptr %4, align 8
  %103 = call ptr @createThrowable(ptr noundef %102, ptr noundef @.str.30, ptr noundef null)
  store ptr %103, ptr %16, align 8
  %104 = load ptr, ptr %16, align 8
  %105 = icmp ne ptr %104, null
  br i1 %105, label %106, label %114

106:                                              ; preds = %101
  %107 = load ptr, ptr %4, align 8
  %108 = load ptr, ptr %107, align 8
  %109 = getelementptr inbounds %struct.JNINativeInterface_, ptr %108, i32 0, i32 13
  %110 = load ptr, ptr %109, align 8
  %111 = load ptr, ptr %4, align 8
  %112 = load ptr, ptr %16, align 8
  %113 = call i32 %110(ptr noundef %111, ptr noundef %112)
  br label %114

114:                                              ; preds = %106, %101
  br label %148

115:                                              ; preds = %98
  %116 = load ptr, ptr %9, align 8
  %117 = call ptr @getAttribute(ptr noundef %116, ptr noundef @.str.11)
  store ptr %117, ptr %11, align 8
  %118 = load ptr, ptr %11, align 8
  %119 = icmp ne ptr %118, null
  br i1 %119, label %120, label %124

120:                                              ; preds = %115
  %121 = load ptr, ptr %7, align 8
  %122 = load ptr, ptr %8, align 8
  %123 = load ptr, ptr %11, align 8
  call void @appendBootClassPath(ptr noundef %121, ptr noundef %122, ptr noundef %123)
  br label %124

124:                                              ; preds = %120, %115
  %125 = load ptr, ptr %9, align 8
  %126 = load ptr, ptr %7, align 8
  call void @convertCapabilityAttributes(ptr noundef %125, ptr noundef %126)
  %127 = load ptr, ptr %4, align 8
  %128 = load ptr, ptr %7, align 8
  %129 = call zeroext i8 @createInstrumentationImpl(ptr noundef %127, ptr noundef %128)
  %130 = icmp ne i8 %129, 0
  br i1 %130, label %132, label %131

131:                                              ; preds = %124
  br label %148

132:                                              ; preds = %124
  %133 = load ptr, ptr %7, align 8
  %134 = call zeroext i8 @setLivePhaseEventHandlers(ptr noundef %133)
  %135 = icmp ne i8 %134, 0
  br i1 %135, label %137, label %136

136:                                              ; preds = %132
  br label %148

137:                                              ; preds = %132
  %138 = load ptr, ptr %7, align 8
  %139 = load ptr, ptr %4, align 8
  %140 = load ptr, ptr %10, align 8
  %141 = load ptr, ptr %7, align 8
  %142 = getelementptr inbounds %struct._JPLISAgent, ptr %141, i32 0, i32 5
  %143 = load ptr, ptr %142, align 8
  %144 = call zeroext i8 @startJavaAgent(ptr noundef %138, ptr noundef %139, ptr noundef %140, ptr noundef @.str.31, ptr noundef %143)
  %145 = icmp ne i8 %144, 0
  br i1 %145, label %147, label %146

146:                                              ; preds = %137
  br label %148

147:                                              ; preds = %137
  store i32 0, ptr %14, align 4
  br label %148

148:                                              ; preds = %147, %146, %136, %131, %114, %76, %60, %54
  %149 = load ptr, ptr %10, align 8
  %150 = icmp ne ptr %149, null
  br i1 %150, label %151, label %153

151:                                              ; preds = %148
  %152 = load ptr, ptr %10, align 8
  call void @free(ptr noundef %152) #9
  br label %153

153:                                              ; preds = %151, %148
  %154 = load ptr, ptr %9, align 8
  %155 = icmp ne ptr %154, null
  br i1 %155, label %156, label %158

156:                                              ; preds = %153
  %157 = load ptr, ptr %9, align 8
  call void @freeAttributes(ptr noundef %157)
  br label %158

158:                                              ; preds = %156, %153
  %159 = load i32, ptr %14, align 4
  %160 = icmp ne i32 %159, 0
  br i1 %160, label %161, label %172

161:                                              ; preds = %158
  %162 = load ptr, ptr %8, align 8
  %163 = icmp ne ptr %162, null
  br i1 %163, label %164, label %172

164:                                              ; preds = %161
  %165 = load ptr, ptr %4, align 8
  %166 = load ptr, ptr %165, align 8
  %167 = getelementptr inbounds %struct.JNINativeInterface_, ptr %166, i32 0, i32 170
  %168 = load ptr, ptr %167, align 8
  %169 = load ptr, ptr %4, align 8
  %170 = load ptr, ptr %5, align 8
  %171 = load ptr, ptr %8, align 8
  call void %168(ptr noundef %169, ptr noundef %170, ptr noundef %171)
  br label %172

172:                                              ; preds = %164, %161, %158
  %173 = load i32, ptr %14, align 4
  store i32 %173, ptr %3, align 4
  br label %174

174:                                              ; preds = %172, %41, %35, %24
  %175 = load i32, ptr %3, align 4
  ret i32 %175
}