; Function Attrs: nounwind uwtable
define hidden range(i32 -1, 1) i32 @loadAgent(ptr noundef %0, ptr noundef %1) local_unnamed_addr #0 {
  %3 = alloca ptr, align 8
  %4 = alloca ptr, align 8
  %5 = load ptr, ptr %0, align 8
  %6 = getelementptr inbounds i8, ptr %5, i64 1752
  %7 = load ptr, ptr %6, align 8
  %8 = call i32 %7(ptr noundef nonnull %0, ptr noundef nonnull %3) #15
  %9 = icmp slt i32 %8, 0
  br i1 %9, label %67, label %10

10:                                               ; preds = %2
  %11 = load ptr, ptr %0, align 8
  %12 = getelementptr inbounds i8, ptr %11, i64 1352
  %13 = load ptr, ptr %12, align 8
  %14 = call ptr %13(ptr noundef nonnull %0, ptr noundef %1, ptr noundef null) #15
  %15 = icmp eq ptr %14, null
  br i1 %15, label %67, label %16

16:                                               ; preds = %10
  %17 = load ptr, ptr %3, align 8
  %18 = call i32 @createNewJPLISAgent(ptr noundef %17, ptr noundef nonnull %4, ptr noundef nonnull %14, i8 noundef zeroext 0) #15
  %.not = icmp eq i32 %18, 0
  br i1 %.not, label %19, label %.sink.split

19:                                               ; preds = %16
  %20 = call ptr @readAttributes(ptr noundef nonnull %14) #15
  %21 = icmp eq ptr %20, null
  br i1 %21, label %.sink.split, label %22

22:                                               ; preds = %19
  %23 = call ptr @getAttribute(ptr noundef nonnull %20, ptr noundef nonnull @.str.29) #15
  %24 = icmp eq ptr %23, null
  br i1 %24, label %.thread107, label %25

25:                                               ; preds = %22
  %26 = call i64 @strlen(ptr noundef nonnull dereferenceable(1) %23) #16
  %27 = trunc i64 %26 to i32
  %28 = call i32 @modifiedUtf8LengthOfUtf8(ptr noundef nonnull %23, i32 noundef %27) #15
  %29 = icmp slt i32 %27, 0
  %30 = icmp ugt i32 %28, 65535
  %or.cond3 = select i1 %29, i1 true, i1 %30
  br i1 %or.cond3, label %63, label %31

31:                                               ; preds = %25
  %32 = icmp eq i32 %28, %27
  br i1 %32, label %37, label %33

33:                                               ; preds = %31
  %34 = add nuw nsw i32 %28, 1
  %35 = zext nneg i32 %34 to i64
  %36 = call noalias ptr @malloc(i64 noundef %35) #19
  %.not73 = icmp eq ptr %36, null
  br i1 %.not73, label %.thread, label %.thread84

.thread84:                                        ; preds = %33
  call void @convertUtf8ToModifiedUtf8(ptr noundef nonnull %23, i32 noundef %27, ptr noundef nonnull %36, i32 noundef %28) #15
  br label %46

37:                                               ; preds = %31
  %38 = call noalias ptr @strdup(ptr noundef nonnull %23) #15
  %39 = icmp eq ptr %38, null
  br i1 %39, label %.thread, label %46

.thread:                                          ; preds = %33, %37
  %40 = call ptr @createThrowable(ptr noundef nonnull %0, ptr noundef nonnull @.str.30, ptr noundef null) #15
  %.not78 = icmp eq ptr %40, null
  br i1 %.not78, label %.thread107, label %41

41:                                               ; preds = %.thread
  %42 = load ptr, ptr %0, align 8
  %43 = getelementptr inbounds i8, ptr %42, i64 104
  %44 = load ptr, ptr %43, align 8
  %45 = call i32 %44(ptr noundef nonnull %0, ptr noundef nonnull %40) #15
  br label %.thread107

46:                                               ; preds = %.thread84, %37
  %.06286 = phi ptr [ %36, %.thread84 ], [ %38, %37 ]
  %47 = call ptr @getAttribute(ptr noundef nonnull %20, ptr noundef nonnull @.str.11) #15
  %.not74 = icmp eq ptr %47, null
  br i1 %.not74, label %51, label %48

48:                                               ; preds = %46
  %49 = load ptr, ptr %4, align 8
  %50 = getelementptr i8, ptr %49, i64 8
  %.val = load ptr, ptr %50, align 8
  call fastcc void @appendBootClassPath(ptr %.val, ptr noundef nonnull %14, ptr noundef nonnull %47)
  br label %51

51:                                               ; preds = %48, %46
  %52 = load ptr, ptr %4, align 8
  call void @convertCapabilityAttributes(ptr noundef nonnull %20, ptr noundef %52)
  %53 = load ptr, ptr %4, align 8
  %54 = call zeroext i8 @createInstrumentationImpl(ptr noundef nonnull %0, ptr noundef %53) #15
  %.not75 = icmp eq i8 %54, 0
  br i1 %.not75, label %63, label %55

55:                                               ; preds = %51
  %56 = load ptr, ptr %4, align 8
  %57 = call zeroext i8 @setLivePhaseEventHandlers(ptr noundef %56) #15
  %.not76 = icmp eq i8 %57, 0
  br i1 %.not76, label %63, label %58

58:                                               ; preds = %55
  %59 = load ptr, ptr %4, align 8
  %60 = getelementptr inbounds i8, ptr %59, i64 72
  %61 = load ptr, ptr %60, align 8
  %62 = call zeroext i8 @startJavaAgent(ptr noundef %59, ptr noundef nonnull %0, ptr noundef nonnull %.06286, ptr noundef nonnull @.str.31, ptr noundef %61) #15
  %.not77 = icmp ne i8 %62, 0
  %not..not77 = xor i1 %.not77, true
  %spec.select82 = sext i1 %not..not77 to i32
  br label %63

.thread107:                                       ; preds = %.thread, %41, %22
  call void @freeAttributes(ptr noundef nonnull %20) #15
  br label %.sink.split

63:                                               ; preds = %58, %55, %51, %25
  %.1 = phi ptr [ %23, %25 ], [ %.06286, %55 ], [ %.06286, %51 ], [ %.06286, %58 ]
  %.not81 = phi i1 [ false, %25 ], [ false, %55 ], [ false, %51 ], [ %.not77, %58 ]
  %.061 = phi i32 [ -1, %25 ], [ -1, %55 ], [ -1, %51 ], [ %spec.select82, %58 ]
  call void @free(ptr noundef nonnull %.1) #15
  call void @freeAttributes(ptr noundef nonnull %20) #15
  br i1 %.not81, label %67, label %.sink.split

.sink.split:                                      ; preds = %63, %.thread107, %19, %16
  %.0.ph = phi i32 [ -1, %16 ], [ %.061, %63 ], [ -1, %.thread107 ], [ -1, %19 ]
  %64 = load ptr, ptr %0, align 8
  %65 = getelementptr inbounds i8, ptr %64, i64 1360
  %66 = load ptr, ptr %65, align 8
  call void %66(ptr noundef nonnull %0, ptr noundef %1, ptr noundef nonnull %14) #15
  br label %67

67:                                               ; preds = %.sink.split, %63, %10, %2
  %.0 = phi i32 [ -1, %2 ], [ -1, %10 ], [ %.061, %63 ], [ %.0.ph, %.sink.split ]
  ret i32 %.0
}